target datalayout = "e-m:e-p270:32:32-p271:32:32-p272:64:64-i64:64-i128:128-f80:128-n8:16:32:64-S128"
target triple = "x86_64-pc-linux-gnu"

%struct.UConverterAlias = type { ptr, ptr, ptr, ptr, ptr, ptr, ptr, ptr, ptr, i32, i32, i32, i32, i32, i32, i32, i32, i32 }

@_ZL10gMainTable = internal global %struct.UConverterAlias zeroinitializer, align 8

; Function Attrs: inlinehint mustprogress nounwind uwtable
define internal noundef signext i8 @_ZL7isAliasPKcP10UErrorCode(ptr noundef %0, ptr noundef %1) #3 {
  %3 = alloca i8, align 1
  %4 = alloca ptr, align 8
  %5 = alloca ptr, align 8
  store ptr %0, ptr %4, align 8, !tbaa !3
  store ptr %1, ptr %5, align 8, !tbaa !17
  %6 = load ptr, ptr %4, align 8, !tbaa !3
  %7 = icmp eq ptr %6, null
  br i1 %7, label %8, label %10

8:                                                ; preds = %2
  %9 = load ptr, ptr %5, align 8, !tbaa !17
  store i32 1, ptr %9, align 4, !tbaa !26
  store i8 0, ptr %3, align 1
  br label %16

10:                                               ; preds = %2
  %11 = load ptr, ptr %4, align 8, !tbaa !3
  %12 = load i8, ptr %11, align 1, !tbaa !8
  %13 = sext i8 %12 to i32
  %14 = icmp ne i32 %13, 0
  %15 = zext i1 %14 to i8
  store i8 %15, ptr %3, align 1
  br label %16

16:                                               ; preds = %10, %8
  %17 = load i8, ptr %3, align 1
  ret i8 %17
}

; Function Attrs: mustprogress uwtable
define internal noundef zeroext i16 @_ZL20ucnv_io_countAliasesPKcP10UErrorCode(ptr noundef %0, ptr noundef %1) #2 {
  %3 = alloca i16, align 2
  %4 = alloca ptr, align 8
  %5 = alloca ptr, align 8
  %6 = alloca i32, align 4
  %7 = alloca i32, align 4
  %8 = alloca i32, align 4
  store ptr %0, ptr %4, align 8, !tbaa !3
  store ptr %1, ptr %5, align 8, !tbaa !17
  %9 = load ptr, ptr %5, align 8, !tbaa !17
  %10 = call noundef signext i8 @_ZL13haveAliasDataP10UErrorCode(ptr noundef %9)
  %11 = icmp ne i8 %10, 0
  br i1 %11, label %12, label %52

12:                                               ; preds = %2
  %13 = load ptr, ptr %4, align 8, !tbaa !3
  %14 = load ptr, ptr %5, align 8, !tbaa !17
  %15 = call noundef signext i8 @_ZL7isAliasPKcP10UErrorCode(ptr noundef %13, ptr noundef %14)
  %16 = icmp ne i8 %15, 0
  br i1 %16, label %17, label %52

17:                                               ; preds = %12
  call void @llvm.lifetime.start.p0(i64 4, ptr %6) #12
  %18 = load ptr, ptr %4, align 8, !tbaa !3
  %19 = load ptr, ptr %5, align 8, !tbaa !17
  %20 = call noundef i32 @_ZL13findConverterPKcPaP10UErrorCode(ptr noundef %18, ptr noundef null, ptr noundef %19)
  store i32 %20, ptr %6, align 4, !tbaa !14
  %21 = load i32, ptr %6, align 4, !tbaa !14
  %22 = load i32, ptr getelementptr inbounds nuw (%struct.UConverterAlias, ptr @_ZL10gMainTable, i32 0, i32 9), align 8, !tbaa !18
  %23 = icmp ult i32 %21, %22
  br i1 %23, label %24, label %48

24:                                               ; preds = %17
  call void @llvm.lifetime.start.p0(i64 4, ptr %7) #12
  %25 = load ptr, ptr getelementptr inbounds nuw (%struct.UConverterAlias, ptr @_ZL10gMainTable, i32 0, i32 4), align 8, !tbaa !48
  %26 = load i32, ptr getelementptr inbounds nuw (%struct.UConverterAlias, ptr @_ZL10gMainTable, i32 0, i32 10), align 4, !tbaa !47
  %27 = sub i32 %26, 1
  %28 = load i32, ptr getelementptr inbounds nuw (%struct.UConverterAlias, ptr @_ZL10gMainTable, i32 0, i32 9), align 8, !tbaa !18
  %29 = mul i32 %27, %28
  %30 = load i32, ptr %6, align 4, !tbaa !14
  %31 = add i32 %29, %30
  %32 = zext i32 %31 to i64
  %33 = getelementptr inbounds nuw i16, ptr %25, i64 %32
  %34 = load i16, ptr %33, align 2, !tbaa !23
  %35 = zext i16 %34 to i32
  store i32 %35, ptr %7, align 4, !tbaa !14
  %36 = load i32, ptr %7, align 4, !tbaa !14
  %37 = icmp ne i32 %36, 0
  br i1 %37, label %38, label %44

38:                                               ; preds = %24
  %39 = load ptr, ptr getelementptr inbounds nuw (%struct.UConverterAlias, ptr @_ZL10gMainTable, i32 0, i32 5), align 8, !tbaa !49
  %40 = load i32, ptr %7, align 4, !tbaa !14
  %41 = sext i32 %40 to i64
  %42 = getelementptr inbounds i16, ptr %39, i64 %41
  %43 = load i16, ptr %42, align 2, !tbaa !23
  store i16 %43, ptr %3, align 2
  store i32 1, ptr %8, align 4
  br label %45

44:                                               ; preds = %24
  store i32 0, ptr %8, align 4
  br label %45

45:                                               ; preds = %44, %38
  call void @llvm.lifetime.end.p0(i64 4, ptr %7) #12
  %46 = load i32, ptr %8, align 4
  switch i32 %46, label %49 [
    i32 0, label %47
  ]

47:                                               ; preds = %45
  br label %48

48:                                               ; preds = %47, %17
  store i32 0, ptr %8, align 4
  br label %49

49:                                               ; preds = %48, %45
  call void @llvm.lifetime.end.p0(i64 4, ptr %6) #12
  %50 = load i32, ptr %8, align 4
  switch i32 %50, label %55 [
    i32 0, label %51
    i32 1, label %53
  ]

51:                                               ; preds = %49
  br label %52

52:                                               ; preds = %51, %12, %2
  store i16 0, ptr %3, align 2
  br label %53

53:                                               ; preds = %52, %49
  %54 = load i16, ptr %3, align 2
  ret i16 %54

55:                                               ; preds = %49
  unreachable
}

; Function Attrs: mustprogress uwtable
define zeroext i16 @ucnv_countAliases_77(ptr noundef %0, ptr noundef %1) #2 {
  %3 = alloca ptr, align 8
  %4 = alloca ptr, align 8
  store ptr %0, ptr %3, align 8, !tbaa !3
  store ptr %1, ptr %4, align 8, !tbaa !17
  %5 = load ptr, ptr %3, align 8, !tbaa !3
  %6 = load ptr, ptr %4, align 8, !tbaa !17
  %7 = call noundef zeroext i16 @_ZL20ucnv_io_countAliasesPKcP10UErrorCode(ptr noundef %5, ptr noundef %6)
  ret i16 %7
}