; Function Attrs: mustprogress uwtable
define zeroext i16 @ucnv_countAliases_77(ptr noundef readonly %0, ptr noundef %1) local_unnamed_addr #3 {
  %3 = tail call fastcc noundef signext i8 @_ZL13haveAliasDataP10UErrorCode(ptr noundef %1)
  %.not.i = icmp eq i8 %3, 0
  br i1 %.not.i, label %_ZL20ucnv_io_countAliasesPKcP10UErrorCode.exit, label %4

4:                                                ; preds = %2
  %5 = icmp eq ptr %0, null
  br i1 %5, label %_ZL7isAliasPKcP10UErrorCode.exit.thread.i, label %_ZL7isAliasPKcP10UErrorCode.exit.i

_ZL7isAliasPKcP10UErrorCode.exit.thread.i:        ; preds = %4
  store i32 1, ptr %1, align 4, !tbaa !13
  br label %_ZL20ucnv_io_countAliasesPKcP10UErrorCode.exit

_ZL7isAliasPKcP10UErrorCode.exit.i:               ; preds = %4
  %6 = load i8, ptr %0, align 1, !tbaa !3
  %.not25.i = icmp eq i8 %6, 0
  br i1 %.not25.i, label %_ZL20ucnv_io_countAliasesPKcP10UErrorCode.exit, label %7

7:                                                ; preds = %_ZL7isAliasPKcP10UErrorCode.exit.i
  %8 = tail call fastcc noundef i32 @_ZL13findConverterPKcPaP10UErrorCode(ptr noundef nonnull readonly %0, ptr noundef null, ptr noundef %1)
  %9 = load i32, ptr getelementptr inbounds nuw (i8, ptr @_ZL10gMainTable, i64 72), align 8, !tbaa !15
  %10 = icmp ult i32 %8, %9
  br i1 %10, label %11, label %_ZL20ucnv_io_countAliasesPKcP10UErrorCode.exit

11:                                               ; preds = %7
  %12 = load ptr, ptr getelementptr inbounds nuw (i8, ptr @_ZL10gMainTable, i64 32), align 8, !tbaa !38
  %13 = load i32, ptr getelementptr inbounds nuw (i8, ptr @_ZL10gMainTable, i64 76), align 4, !tbaa !27
  %14 = add i32 %13, -1
  %15 = mul i32 %14, %9
  %16 = add i32 %15, %8
  %17 = zext i32 %16 to i64
  %18 = getelementptr inbounds nuw i16, ptr %12, i64 %17
  %19 = load i16, ptr %18, align 2, !tbaa !22
  %.not17.i = icmp eq i16 %19, 0
  br i1 %.not17.i, label %_ZL20ucnv_io_countAliasesPKcP10UErrorCode.exit, label %20

20:                                               ; preds = %11
  %21 = load ptr, ptr getelementptr inbounds nuw (i8, ptr @_ZL10gMainTable, i64 40), align 8, !tbaa !39
  %22 = zext i16 %19 to i64
  %23 = getelementptr inbounds nuw i16, ptr %21, i64 %22
  %24 = load i16, ptr %23, align 2, !tbaa !22
  br label %_ZL20ucnv_io_countAliasesPKcP10UErrorCode.exit

_ZL20ucnv_io_countAliasesPKcP10UErrorCode.exit:   ; preds = %2, %_ZL7isAliasPKcP10UErrorCode.exit.thread.i, %_ZL7isAliasPKcP10UErrorCode.exit.i, %7, %11, %20
  %.3.i = phi i16 [ %24, %20 ], [ 0, %_ZL7isAliasPKcP10UErrorCode.exit.thread.i ], [ 0, %_ZL7isAliasPKcP10UErrorCode.exit.i ], [ 0, %2 ], [ 0, %7 ], [ 0, %11 ]
  ret i16 %.3.i
}